(dp0
S'11'
p1
(lp2
(lp3
S'shekhar verma'
p4
aS'28-11-1998'
p5
aasS'02'
p6
(lp7
(lp8
S'lakshay'
p9
aS'03-02-1998'
p10
aa(lp11
S'prashant vig'
p12
aS'03-02-1998'
p13
aasS'12'
p14
(lp15
(lp16
S'temp'
p17
aS'01-12-1998'
p18
aa(lp19
S'dasdasdas'
p20
aS'09-12-1998'
p21
aasS'07'
p22
(lp23
(lp24
S'armaan siani'
p25
aS'19-07-1998'
p26
aa(lp27
S'sagrika dey'
p28
aS'19-07-1998'
p29
aas.